; Function Attrs: mustprogress noinline uwtable
define hidden noundef ptr @_ZN6google8protobuf5Arena18CreateMaybeMessageIN11opencv_onnx19TensorProto_SegmentEJEEEPT_PS1_DpOT0_(ptr noundef %0) local_unnamed_addr #17 align 2 personality ptr @__gxx_personality_v0 {
  %2 = icmp eq ptr %0, null
  br i1 %2, label %_ZN6google8protobuf5Arena14InternalHelperIN11opencv_onnx19TensorProto_SegmentEE3NewEv.exit, label %5

_ZN6google8protobuf5Arena14InternalHelperIN11opencv_onnx19TensorProto_SegmentEE3NewEv.exit: ; preds = %1
  %3 = tail call noalias noundef nonnull dereferenceable(40) ptr @_Znwm(i64 noundef 40) #24
  %4 = getelementptr inbounds nuw i8, ptr %3, i64 8
  store i64 0, ptr %4, align 8, !tbaa !33
  br label %_ZN6google8protobuf5Arena21CreateMessageInternalIN11opencv_onnx19TensorProto_SegmentEEEPT_PS1_.exit

5:                                                ; preds = %1
  %6 = tail call noundef ptr @_ZN6google8protobuf5Arena23AllocateAlignedWithHookEmPKSt9type_info(ptr noundef nonnull align 8 dereferenceable(32) %0, i64 noundef 40, ptr noundef nonnull @_ZTIN11opencv_onnx19TensorProto_SegmentE)
  %7 = getelementptr inbounds nuw i8, ptr %6, i64 8
  %8 = ptrtoint ptr %0 to i64
  store i64 %8, ptr %7, align 8, !tbaa !33
  br label %_ZN6google8protobuf5Arena21CreateMessageInternalIN11opencv_onnx19TensorProto_SegmentEEEPT_PS1_.exit

_ZN6google8protobuf5Arena21CreateMessageInternalIN11opencv_onnx19TensorProto_SegmentEEEPT_PS1_.exit: ; preds = %_ZN6google8protobuf5Arena14InternalHelperIN11opencv_onnx19TensorProto_SegmentEE3NewEv.exit, %5
  %.sink2 = phi ptr [ %3, %_ZN6google8protobuf5Arena14InternalHelperIN11opencv_onnx19TensorProto_SegmentEE3NewEv.exit ], [ %6, %5 ]
  store ptr getelementptr inbounds nuw inrange(-16, 152) (i8, ptr @_ZTVN11opencv_onnx19TensorProto_SegmentE, i64 16), ptr %.sink2, align 8, !tbaa !34
  %.ptr.i = getelementptr inbounds nuw i8, ptr %.sink2, i64 16
  tail call void @llvm.memset.p0.i64(ptr noundef nonnull align 8 dereferenceable(24) %.ptr.i, i8 0, i64 24, i1 false)
  ret ptr %.sink2
}